; Function Attrs: mustprogress nounwind sspstrong uwtable
define void @_ZN4FLAC7Decoder6StreamD2Ev(ptr nocapture noundef nonnull align 8 dereferenceable(16) %this) unnamed_addr #2 align 2 personality ptr @__gxx_personality_v0 {
entry:
  store ptr getelementptr inbounds ({ [39 x ptr] }, ptr @_ZTVN4FLAC7Decoder6StreamE, i64 0, i32 0, i64 2), ptr %this, align 8
  %decoder_ = getelementptr inbounds i8, ptr %this, i64 8
  %0 = load ptr, ptr %decoder_, align 8
  %cmp.not = icmp eq ptr %0, null
  br i1 %cmp.not, label %if.end, label %if.then

if.then:                                          ; preds = %entry
  %call = invoke i32 @FLAC__stream_decoder_finish(ptr noundef nonnull %0)
          to label %invoke.cont unwind label %terminate.lpad

invoke.cont:                                      ; preds = %if.then
  %1 = load ptr, ptr %decoder_, align 8
  invoke void @FLAC__stream_decoder_delete(ptr noundef %1)
          to label %if.end unwind label %terminate.lpad

if.end:                                           ; preds = %invoke.cont, %entry
  ret void

terminate.lpad:                                   ; preds = %invoke.cont, %if.then
  %2 = landingpad { ptr, i32 }
          catch ptr null
  %3 = extractvalue { ptr, i32 } %2, 0
  tail call void @__clang_call_terminate(ptr %3) #9
  unreachable
}